target datalayout = "e-m:e-p270:32:32-p271:32:32-p272:64:64-i64:64-i128:128-f80:128-n8:16:32:64-S128"
target triple = "x86_64-pc-linux-gnu"

@.str.5 = private unnamed_addr constant [18 x i8] c"$<INSTALL_PREFIX>\00", align 1

; Function Attrs: mustprogress nounwind uwtable
define linkonce_odr dso_local noundef i64 @_Z8cmStrLenILm18EEmRAT__Kc(ptr noundef nonnull align 1 dereferenceable(18) %0) #4 comdat {
  %2 = alloca ptr, align 8
  store ptr %0, ptr %2, align 8
  ret i64 17
}

; Function Attrs: mustprogress uwtable
define dso_local void @_ZN21cmGeneratorExpression20ReplaceInstallPrefixERNSt7__cxx1112basic_stringIcSt11char_traitsIcESaIcEEERKS5_(ptr noundef nonnull align 8 dereferenceable(32) %0, ptr noundef nonnull align 8 dereferenceable(32) %1) #5 align 2 {
  %3 = alloca ptr, align 8
  %4 = alloca ptr, align 8
  %5 = alloca i64, align 8
  %6 = alloca i64, align 8
  %7 = alloca i64, align 8
  store ptr %0, ptr %3, align 8
  store ptr %1, ptr %4, align 8
  store i64 0, ptr %5, align 8
  %8 = load i64, ptr %5, align 8
  store i64 %8, ptr %6, align 8
  br label %9

9:                                                ; preds = %14, %2
  %10 = load ptr, ptr %3, align 8
  %11 = load i64, ptr %6, align 8
  %12 = call noundef i64 @_ZNKSt7__cxx1112basic_stringIcSt11char_traitsIcESaIcEE4findEPKcm(ptr noundef nonnull align 8 dereferenceable(32) %10, ptr noundef @.str.5, i64 noundef %11) #3
  store i64 %12, ptr %5, align 8
  %13 = icmp ne i64 %12, -1
  br i1 %13, label %14, label %26

14:                                               ; preds = %9
  %15 = load i64, ptr %5, align 8
  %16 = call noundef i64 @_Z8cmStrLenILm18EEmRAT__Kc(ptr noundef nonnull align 1 dereferenceable(18) @.str.5)
  %17 = add i64 %15, %16
  store i64 %17, ptr %7, align 8
  %18 = load ptr, ptr %3, align 8
  %19 = load i64, ptr %5, align 8
  %20 = load i64, ptr %7, align 8
  %21 = load i64, ptr %5, align 8
  %22 = sub i64 %20, %21
  %23 = load ptr, ptr %4, align 8
  %24 = call noundef nonnull align 8 dereferenceable(32) ptr @_ZNSt7__cxx1112basic_stringIcSt11char_traitsIcESaIcEE7replaceEmmRKS4_(ptr noundef nonnull align 8 dereferenceable(32) %18, i64 noundef %19, i64 noundef %22, ptr noundef nonnull align 8 dereferenceable(32) %23)
  %25 = load i64, ptr %7, align 8
  store i64 %25, ptr %6, align 8
  br label %9, !llvm.loop !15

26:                                               ; preds = %9
  ret void
}