; Function Attrs: mustprogress uwtable
define dso_local void @_ZN21cmGeneratorExpression20ReplaceInstallPrefixERNSt7__cxx1112basic_stringIcSt11char_traitsIcESaIcEEERKS5_(ptr noundef nonnull align 8 dereferenceable(32) %0, ptr noundef nonnull align 8 dereferenceable(32) %1) local_unnamed_addr #5 align 2 {
  %3 = tail call noundef i64 @_ZNKSt7__cxx1112basic_stringIcSt11char_traitsIcESaIcEE4findEPKcm(ptr noundef nonnull align 8 dereferenceable(32) %0, ptr noundef nonnull @.str.5, i64 noundef 0) #20
  %.not10 = icmp eq i64 %3, -1
  br i1 %.not10, label %._crit_edge, label %.lr.ph

.lr.ph:                                           ; preds = %2, %.lr.ph
  %4 = phi i64 [ %7, %.lr.ph ], [ %3, %2 ]
  %5 = add i64 %4, 17
  %6 = tail call noundef nonnull align 8 dereferenceable(32) ptr @_ZNSt7__cxx1112basic_stringIcSt11char_traitsIcESaIcEE7replaceEmmRKS4_(ptr noundef nonnull align 8 dereferenceable(32) %0, i64 noundef %4, i64 noundef 17, ptr noundef nonnull align 8 dereferenceable(32) %1)
  %7 = tail call noundef i64 @_ZNKSt7__cxx1112basic_stringIcSt11char_traitsIcESaIcEE4findEPKcm(ptr noundef nonnull align 8 dereferenceable(32) %0, ptr noundef nonnull @.str.5, i64 noundef %5) #20
  %.not = icmp eq i64 %7, -1
  br i1 %.not, label %._crit_edge, label %.lr.ph, !llvm.loop !86

._crit_edge:                                      ; preds = %.lr.ph, %2
  ret void
}